target datalayout = "e-m:e-p270:32:32-p271:32:32-p272:64:64-i64:64-i128:128-f80:128-n8:16:32:64-S128"
target triple = "x86_64-pc-linux-gnu"

%struct.mi_random_cxt_s = type { [16 x i32], [16 x i32], i32 }

; Function Attrs: inlinehint nounwind uwtable
define internal void @_mi_memcpy(ptr noundef %0, ptr noundef %1, i64 noundef %2) #3 {
  %4 = alloca ptr, align 8
  %5 = alloca ptr, align 8
  %6 = alloca i64, align 8
  store ptr %0, ptr %4, align 8, !tbaa !20
  store ptr %1, ptr %5, align 8, !tbaa !20
  store i64 %2, ptr %6, align 8, !tbaa !8
  %7 = load ptr, ptr %4, align 8, !tbaa !20
  %8 = load ptr, ptr %5, align 8, !tbaa !20
  %9 = load i64, ptr %6, align 8, !tbaa !8
  call void @llvm.memcpy.p0.p0.i64(ptr align 1 %7, ptr align 1 %8, i64 %9, i1 false)
  ret void
}

; Function Attrs: nounwind uwtable
define internal void @chacha_split(ptr noundef %0, i64 noundef %1, ptr noundef %2) #0 {
  %4 = alloca ptr, align 8
  %5 = alloca i64, align 8
  %6 = alloca ptr, align 8
  store ptr %0, ptr %4, align 8, !tbaa !3
  store i64 %1, ptr %5, align 8, !tbaa !8
  store ptr %2, ptr %6, align 8, !tbaa !3
  %7 = load ptr, ptr %6, align 8, !tbaa !3
  call void @llvm.memset.p0.i64(ptr align 4 %7, i8 0, i64 132, i1 false)
  %8 = load ptr, ptr %6, align 8, !tbaa !3
  %9 = getelementptr inbounds nuw %struct.mi_random_cxt_s, ptr %8, i32 0, i32 0
  %10 = getelementptr inbounds [16 x i32], ptr %9, i64 0, i64 0
  %11 = load ptr, ptr %4, align 8, !tbaa !3
  %12 = getelementptr inbounds nuw %struct.mi_random_cxt_s, ptr %11, i32 0, i32 0
  %13 = getelementptr inbounds [16 x i32], ptr %12, i64 0, i64 0
  call void @_mi_memcpy(ptr noundef %10, ptr noundef %13, i64 noundef 64)
  %14 = load ptr, ptr %6, align 8, !tbaa !3
  %15 = getelementptr inbounds nuw %struct.mi_random_cxt_s, ptr %14, i32 0, i32 0
  %16 = getelementptr inbounds [16 x i32], ptr %15, i64 0, i64 12
  store i32 0, ptr %16, align 4, !tbaa !10
  %17 = load ptr, ptr %6, align 8, !tbaa !3
  %18 = getelementptr inbounds nuw %struct.mi_random_cxt_s, ptr %17, i32 0, i32 0
  %19 = getelementptr inbounds [16 x i32], ptr %18, i64 0, i64 13
  store i32 0, ptr %19, align 4, !tbaa !10
  %20 = load i64, ptr %5, align 8, !tbaa !8
  %21 = trunc i64 %20 to i32
  %22 = load ptr, ptr %6, align 8, !tbaa !3
  %23 = getelementptr inbounds nuw %struct.mi_random_cxt_s, ptr %22, i32 0, i32 0
  %24 = getelementptr inbounds [16 x i32], ptr %23, i64 0, i64 14
  store i32 %21, ptr %24, align 4, !tbaa !10
  %25 = load i64, ptr %5, align 8, !tbaa !8
  %26 = lshr i64 %25, 32
  %27 = trunc i64 %26 to i32
  %28 = load ptr, ptr %6, align 8, !tbaa !3
  %29 = getelementptr inbounds nuw %struct.mi_random_cxt_s, ptr %28, i32 0, i32 0
  %30 = getelementptr inbounds [16 x i32], ptr %29, i64 0, i64 15
  store i32 %27, ptr %30, align 4, !tbaa !10
  %31 = load ptr, ptr %6, align 8, !tbaa !3
  call void @chacha_block(ptr noundef %31)
  ret void
}

; Function Attrs: nounwind uwtable
define hidden void @_mi_random_split(ptr noundef %0, ptr noundef %1) #0 {
  %3 = alloca ptr, align 8
  %4 = alloca ptr, align 8
  store ptr %0, ptr %3, align 8, !tbaa !3
  store ptr %1, ptr %4, align 8, !tbaa !3
  %5 = load ptr, ptr %3, align 8, !tbaa !3
  %6 = load ptr, ptr %4, align 8, !tbaa !3
  %7 = ptrtoint ptr %6 to i64
  %8 = load ptr, ptr %4, align 8, !tbaa !3
  call void @chacha_split(ptr noundef %5, i64 noundef %7, ptr noundef %8)
  ret void
}