; Function Attrs: nofree norecurse nosync nounwind memory(argmem: readwrite) uwtable
define hidden void @_mi_random_split(ptr noundef readonly captures(none) %0, ptr noundef %1) local_unnamed_addr #0 {
  %3 = ptrtoint ptr %1 to i64
  tail call void @llvm.memset.p0.i64(ptr noundef nonnull align 4 dereferenceable(132) %1, i8 0, i64 132, i1 false)
  tail call void @llvm.memcpy.p0.p0.i64(ptr noundef nonnull align 1 dereferenceable(64) %1, ptr noundef nonnull readonly align 1 dereferenceable(64) %0, i64 48, i1 false)
  %4 = getelementptr inbounds nuw i8, ptr %1, i64 52
  store i32 0, ptr %4, align 4, !tbaa !3
  %5 = trunc i64 %3 to i32
  %6 = getelementptr inbounds nuw i8, ptr %1, i64 56
  store i32 %5, ptr %6, align 4, !tbaa !3
  %7 = lshr i64 %3, 32
  %8 = trunc nuw i64 %7 to i32
  %9 = getelementptr inbounds nuw i8, ptr %1, i64 60
  store i32 %8, ptr %9, align 4, !tbaa !3
  tail call fastcc void @chacha_block(ptr noundef nonnull %1)
  ret void
}